; Function Attrs: mustprogress nofree norecurse nosync nounwind willreturn memory(argmem: readwrite) uwtable
define dso_local void @vu_queue_unpop(ptr noundef readnone captures(none) %0, ptr noundef captures(none) %1, ptr noundef readnone captures(none) %2, i64 noundef %3) local_unnamed_addr #13 {
  %5 = getelementptr inbounds nuw i8, ptr %1, i64 80
  %6 = load i16, ptr %5, align 8
  %7 = add i16 %6, -1
  store i16 %7, ptr %5, align 8
  %8 = getelementptr inbounds nuw i8, ptr %1, i64 92
  %9 = load i32, ptr %8, align 4
  %10 = add i32 %9, -1
  store i32 %10, ptr %8, align 4
  ret void
}